target datalayout = "e-m:e-p270:32:32-p271:32:32-p272:64:64-i64:64-i128:128-f80:128-n8:16:32:64-S128"
target triple = "x86_64-pc-linux-gnu"

%class.b3LauncherCL = type { ptr, ptr, ptr, i32, [4 x i8], %class.b3AlignedObjectArray, i32, i8, ptr, %class.b3AlignedObjectArray.0 }
%class.b3AlignedObjectArray = type <{ [4 x i8], i32, i32, [4 x i8], ptr, i8, [7 x i8] }>
%class.b3AlignedObjectArray.0 = type <{ [4 x i8], i32, i32, [4 x i8], ptr, i8, [7 x i8] }>
%struct.b3KernelArgData = type { i32, i32, i32, i32, %union.anon }
%union.anon = type { ptr, [8 x i8] }

@__clewGetMemObjectInfo = external global ptr, align 8
@__clewSetKernelArg = external global ptr, align 8

; Function Attrs: mustprogress uwtable
define dso_local void @_ZN12b3LauncherCL9setBufferEP7_cl_mem(ptr noundef nonnull align 8 dereferenceable(112) %0, ptr noundef %1) #0 align 2 {
  %3 = alloca ptr, align 8
  %4 = alloca ptr, align 8
  %5 = alloca %struct.b3KernelArgData, align 16
  %6 = alloca i32, align 4
  %7 = alloca i64, align 8
  %8 = alloca i64, align 8
  %9 = alloca i64, align 8
  %10 = alloca i32, align 4
  %11 = alloca i32, align 4
  store ptr %0, ptr %3, align 8, !tbaa !4
  store ptr %1, ptr %4, align 8, !tbaa !46
  %12 = load ptr, ptr %3, align 8
  %13 = getelementptr inbounds nuw %class.b3LauncherCL, ptr %12, i32 0, i32 7
  %14 = load i8, ptr %13, align 4, !tbaa !29, !range !32, !noundef !33
  %15 = trunc i8 %14 to i1
  br i1 %15, label %16, label %44

16:                                               ; preds = %2
  call void @llvm.lifetime.start.p0(i64 32, ptr %5) #10
  %17 = getelementptr inbounds nuw %class.b3LauncherCL, ptr %12, i32 0, i32 3
  %18 = load i32, ptr %17, align 8, !tbaa !28
  %19 = getelementptr inbounds nuw %struct.b3KernelArgData, ptr %5, i32 0, i32 1
  store i32 %18, ptr %19, align 4, !tbaa !48
  %20 = getelementptr inbounds nuw %struct.b3KernelArgData, ptr %5, i32 0, i32 0
  store i32 1, ptr %20, align 16, !tbaa !50
  %21 = load ptr, ptr %4, align 8, !tbaa !46
  %22 = getelementptr inbounds nuw %struct.b3KernelArgData, ptr %5, i32 0, i32 4
  store ptr %21, ptr %22, align 16, !tbaa !51
  call void @llvm.lifetime.start.p0(i64 4, ptr %6) #10
  store i32 4354, ptr %6, align 4, !tbaa !34
  call void @llvm.lifetime.start.p0(i64 8, ptr %7) #10
  call void @llvm.lifetime.start.p0(i64 8, ptr %8) #10
  store i64 8, ptr %8, align 8, !tbaa !52
  call void @llvm.lifetime.start.p0(i64 8, ptr %9) #10
  call void @llvm.lifetime.start.p0(i64 4, ptr %10) #10
  %23 = load ptr, ptr @__clewGetMemObjectInfo, align 8, !tbaa !54
  %24 = getelementptr inbounds nuw %struct.b3KernelArgData, ptr %5, i32 0, i32 4
  %25 = load ptr, ptr %24, align 16, !tbaa !51
  %26 = load i32, ptr %6, align 4, !tbaa !34
  %27 = load i64, ptr %8, align 8, !tbaa !52
  %28 = call i32 %23(ptr noundef %25, i32 noundef %26, i64 noundef %27, ptr noundef %7, ptr noundef %9)
  store i32 %28, ptr %10, align 4, !tbaa !34
  %29 = load i64, ptr %7, align 8, !tbaa !52
  %30 = trunc i64 %29 to i32
  %31 = getelementptr inbounds nuw %struct.b3KernelArgData, ptr %5, i32 0, i32 2
  store i32 %30, ptr %31, align 8, !tbaa !55
  %32 = getelementptr inbounds nuw %class.b3LauncherCL, ptr %12, i32 0, i32 5
  call void @_ZN20b3AlignedObjectArrayI15b3KernelArgDataE9push_backERKS0_(ptr noundef nonnull align 8 dereferenceable(25) %32, ptr noundef nonnull align 16 dereferenceable(32) %5)
  %33 = getelementptr inbounds nuw %class.b3LauncherCL, ptr %12, i32 0, i32 6
  %34 = load i32, ptr %33, align 8, !tbaa !35
  %35 = sext i32 %34 to i64
  %36 = add i64 %35, 32
  %37 = trunc i64 %36 to i32
  store i32 %37, ptr %33, align 8, !tbaa !35
  %38 = load i64, ptr %7, align 8, !tbaa !52
  %39 = getelementptr inbounds nuw %class.b3LauncherCL, ptr %12, i32 0, i32 6
  %40 = load i32, ptr %39, align 8, !tbaa !35
  %41 = sext i32 %40 to i64
  %42 = add i64 %41, %38
  %43 = trunc i64 %42 to i32
  store i32 %43, ptr %39, align 8, !tbaa !35
  call void @llvm.lifetime.end.p0(i64 4, ptr %10) #10
  call void @llvm.lifetime.end.p0(i64 8, ptr %9) #10
  call void @llvm.lifetime.end.p0(i64 8, ptr %8) #10
  call void @llvm.lifetime.end.p0(i64 8, ptr %7) #10
  call void @llvm.lifetime.end.p0(i64 4, ptr %6) #10
  call void @llvm.lifetime.end.p0(i64 32, ptr %5) #10
  br label %44

44:                                               ; preds = %16, %2
  call void @llvm.lifetime.start.p0(i64 4, ptr %11) #10
  %45 = load ptr, ptr @__clewSetKernelArg, align 8, !tbaa !54
  %46 = getelementptr inbounds nuw %class.b3LauncherCL, ptr %12, i32 0, i32 2
  %47 = load ptr, ptr %46, align 8, !tbaa !27
  %48 = getelementptr inbounds nuw %class.b3LauncherCL, ptr %12, i32 0, i32 3
  %49 = load i32, ptr %48, align 8, !tbaa !28
  %50 = add nsw i32 %49, 1
  store i32 %50, ptr %48, align 8, !tbaa !28
  %51 = call i32 %45(ptr noundef %47, i32 noundef %49, i64 noundef 8, ptr noundef %4)
  store i32 %51, ptr %11, align 4, !tbaa !34
  call void @llvm.lifetime.end.p0(i64 4, ptr %11) #10
  ret void
}