; Function Attrs: mustprogress uwtable
define dso_local void @_ZN12b3LauncherCL9setBufferEP7_cl_mem(ptr noundef nonnull align 8 dereferenceable(112) %0, ptr noundef %1) local_unnamed_addr #7 align 2 {
  %3 = alloca ptr, align 8
  %4 = alloca %struct.b3KernelArgData, align 16
  %5 = alloca i64, align 8
  %6 = alloca i64, align 8
  store ptr %1, ptr %3, align 8, !tbaa !43
  %7 = getelementptr inbounds nuw i8, ptr %0, i64 68
  %8 = load i8, ptr %7, align 4, !tbaa !28, !range !35, !noundef !36
  %9 = trunc nuw i8 %8 to i1
  br i1 %9, label %10, label %27

10:                                               ; preds = %2
  call void @llvm.lifetime.start.p0(i64 32, ptr nonnull %4) #13
  %11 = getelementptr inbounds nuw i8, ptr %0, i64 24
  %12 = load i32, ptr %11, align 8, !tbaa !23
  %13 = getelementptr inbounds nuw i8, ptr %4, i64 4
  store i32 %12, ptr %13, align 4, !tbaa !45
  store i32 1, ptr %4, align 16, !tbaa !47
  %14 = getelementptr inbounds nuw i8, ptr %4, i64 16
  store ptr %1, ptr %14, align 16, !tbaa !48
  call void @llvm.lifetime.start.p0(i64 8, ptr nonnull %5) #13
  call void @llvm.lifetime.start.p0(i64 8, ptr nonnull %6) #13
  %15 = load ptr, ptr @__clewGetMemObjectInfo, align 8, !tbaa !49
  %16 = call i32 %15(ptr noundef %1, i32 noundef 4354, i64 noundef 8, ptr noundef nonnull %5, ptr noundef nonnull %6)
  %17 = load i64, ptr %5, align 8, !tbaa !50
  %18 = trunc i64 %17 to i32
  %19 = getelementptr inbounds nuw i8, ptr %4, i64 8
  store i32 %18, ptr %19, align 8, !tbaa !52
  %20 = getelementptr inbounds nuw i8, ptr %0, i64 32
  call void @_ZN20b3AlignedObjectArrayI15b3KernelArgDataE9push_backERKS0_(ptr noundef nonnull align 8 dereferenceable(25) %20, ptr noundef nonnull align 16 dereferenceable(32) %4)
  %21 = getelementptr inbounds nuw i8, ptr %0, i64 64
  %22 = load i32, ptr %21, align 8, !tbaa !38
  %23 = add i32 %22, 32
  %24 = load i64, ptr %5, align 8, !tbaa !50
  %25 = trunc i64 %24 to i32
  %26 = add i32 %23, %25
  store i32 %26, ptr %21, align 8, !tbaa !38
  call void @llvm.lifetime.end.p0(i64 8, ptr nonnull %6) #13
  call void @llvm.lifetime.end.p0(i64 8, ptr nonnull %5) #13
  call void @llvm.lifetime.end.p0(i64 32, ptr nonnull %4) #13
  br label %27

27:                                               ; preds = %10, %2
  %28 = load ptr, ptr @__clewSetKernelArg, align 8, !tbaa !49
  %29 = getelementptr inbounds nuw i8, ptr %0, i64 16
  %30 = load ptr, ptr %29, align 8, !tbaa !22
  %31 = getelementptr inbounds nuw i8, ptr %0, i64 24
  %32 = load i32, ptr %31, align 8, !tbaa !23
  %33 = add nsw i32 %32, 1
  store i32 %33, ptr %31, align 8, !tbaa !23
  %34 = call i32 %28(ptr noundef %30, i32 noundef %32, i64 noundef 8, ptr noundef nonnull %3)
  ret void
}